; Function Attrs: alwaysinline norecurse nounwind ssp uwtable
define internal void @"_ZN6open3d4core15ParallelForCPU_IZNS_1t8geometry6kernel10voxel_grid16EstimateRangeCPUERKNS0_6TensorERS6_S8_S8_iiilfffS9_E3$_2EEvRKNS0_6DeviceElRKT_.omp_outlined"(ptr noalias noundef readonly captures(none) %0, ptr noalias readnone captures(none) %1, ptr noundef nonnull readonly align 8 captures(none) dereferenceable(8) %2, ptr noundef nonnull readonly align 8 captures(none) dereferenceable(112) %3) #24 personality ptr @__gxx_personality_v0 {
  %5 = alloca i64, align 8
  %6 = alloca i64, align 8
  %7 = alloca i64, align 8
  %8 = alloca i32, align 4
  %9 = load i64, ptr %2, align 8, !tbaa !12
  %10 = icmp sgt i64 %9, 0
  br i1 %10, label %11, label %69

11:                                               ; preds = %4
  %12 = add nsw i64 %9, -1
  call void @llvm.lifetime.start.p0(i64 8, ptr nonnull %5) #25
  store i64 0, ptr %5, align 8, !tbaa !12
  call void @llvm.lifetime.start.p0(i64 8, ptr nonnull %6) #25
  store i64 %12, ptr %6, align 8, !tbaa !12
  call void @llvm.lifetime.start.p0(i64 8, ptr nonnull %7) #25
  store i64 1, ptr %7, align 8, !tbaa !12
  call void @llvm.lifetime.start.p0(i64 4, ptr nonnull %8) #25
  store i32 0, ptr %8, align 4, !tbaa !19
  %13 = load i32, ptr %0, align 4, !tbaa !19
  call void @__kmpc_for_static_init_8(ptr nonnull @1, i32 %13, i32 34, ptr nonnull %8, ptr nonnull %5, ptr nonnull %6, ptr nonnull %7, i64 1, i64 1)
  %14 = load i64, ptr %6, align 8, !tbaa !12
  %15 = call i64 @llvm.smin.i64(i64 %14, i64 %12)
  store i64 %15, ptr %6, align 8, !tbaa !12
  %16 = load i64, ptr %5, align 8, !tbaa !12
  %.not13 = icmp sgt i64 %16, %15
  br i1 %.not13, label %._crit_edge, label %.lr.ph

.lr.ph:                                           ; preds = %11
  %17 = getelementptr inbounds nuw i8, ptr %3, i64 8
  %18 = getelementptr inbounds nuw i8, ptr %3, i64 56
  %19 = getelementptr inbounds nuw i8, ptr %3, i64 88
  %20 = getelementptr inbounds nuw i8, ptr %3, i64 64
  br label %21

21:                                               ; preds = %.lr.ph, %"_ZZN6open3d1t8geometry6kernel10voxel_grid16EstimateRangeCPUERKNS_4core6TensorERS5_S7_S7_iiilfffS8_ENK3$_2clEl.exit"
  %.014 = phi i64 [ %16, %.lr.ph ], [ %67, %"_ZZN6open3d1t8geometry6kernel10voxel_grid16EstimateRangeCPUERKNS_4core6TensorERS5_S7_S7_iiilfffS8_ENK3$_2clEl.exit" ]
  %22 = call i32 @__kmpc_global_thread_num(ptr nonnull @2)
  %23 = sdiv i64 %.014, 256
  %24 = srem i64 %.014, 256
  %.lhs.trunc.i = trunc nsw i64 %24 to i16
  %25 = sdiv i16 %.lhs.trunc.i, 16
  %.sext.i = sext i16 %25 to i32
  %26 = srem i16 %.lhs.trunc.i, 16
  %.sext32.i = sext i16 %26 to i32
  %sext.i = shl i64 %23, 32
  %27 = ashr exact i64 %sext.i, 32
  %28 = load ptr, ptr %3, align 8, !tbaa !695
  %29 = load i64, ptr %17, align 8, !tbaa !692
  %30 = mul nsw i64 %29, %27
  %31 = getelementptr inbounds i8, ptr %28, i64 %30
  %32 = getelementptr inbounds nuw i8, ptr %31, i64 8
  %33 = load float, ptr %32, align 4, !tbaa !653
  %34 = fptosi float %33 to i32
  %35 = getelementptr inbounds nuw i8, ptr %31, i64 12
  %36 = load float, ptr %35, align 4, !tbaa !653
  %37 = fptosi float %36 to i32
  %38 = getelementptr inbounds nuw i8, ptr %31, i64 16
  %39 = load float, ptr %38, align 4, !tbaa !653
  %40 = fptosi float %39 to i32
  %41 = add nsw i32 %34, %.sext.i
  %42 = add nsw i32 %37, %.sext32.i
  %43 = icmp sgt i32 %41, %40
  br i1 %43, label %"_ZZN6open3d1t8geometry6kernel10voxel_grid16EstimateRangeCPUERKNS_4core6TensorERS5_S7_S7_iiilfffS8_ENK3$_2clEl.exit", label %44

44:                                               ; preds = %21
  %45 = getelementptr inbounds nuw i8, ptr %31, i64 20
  %46 = load float, ptr %45, align 4, !tbaa !653
  %47 = fptosi float %46 to i32
  %48 = icmp sgt i32 %42, %47
  br i1 %48, label %"_ZZN6open3d1t8geometry6kernel10voxel_grid16EstimateRangeCPUERKNS_4core6TensorERS5_S7_S7_iiilfffS8_ENK3$_2clEl.exit", label %49

49:                                               ; preds = %44
  %50 = load float, ptr %31, align 4, !tbaa !653
  %51 = getelementptr inbounds nuw i8, ptr %31, i64 4
  %52 = load float, ptr %51, align 4, !tbaa !653
  %53 = sext i32 %42 to i64
  %54 = sext i32 %41 to i64
  %55 = load i64, ptr %19, align 8, !tbaa !12
  %56 = mul nsw i64 %55, %54
  %57 = add nsw i64 %56, %53
  %58 = load ptr, ptr %18, align 8, !tbaa !695
  %59 = load i64, ptr %20, align 8, !tbaa !692
  %60 = mul nsw i64 %57, %59
  %61 = getelementptr inbounds i8, ptr %58, i64 %60
  call void @__kmpc_critical(ptr nonnull @2, i32 %22, ptr nonnull @.gomp_critical_user_EstimateRangeCPU.var)
  %62 = load float, ptr %61, align 4, !tbaa !653
  %63 = fcmp olt float %62, %50
  %.sroa.speculated28.i = select i1 %63, float %62, float %50
  store float %.sroa.speculated28.i, ptr %61, align 4, !tbaa !653
  %64 = getelementptr inbounds nuw i8, ptr %61, i64 4
  %65 = load float, ptr %64, align 4, !tbaa !653
  %66 = fcmp olt float %52, %65
  %.sroa.speculated.i = select i1 %66, float %65, float %52
  store float %.sroa.speculated.i, ptr %64, align 4, !tbaa !653
  call void @__kmpc_end_critical(ptr nonnull @2, i32 %22, ptr nonnull @.gomp_critical_user_EstimateRangeCPU.var)
  br label %"_ZZN6open3d1t8geometry6kernel10voxel_grid16EstimateRangeCPUERKNS_4core6TensorERS5_S7_S7_iiilfffS8_ENK3$_2clEl.exit"

"_ZZN6open3d1t8geometry6kernel10voxel_grid16EstimateRangeCPUERKNS_4core6TensorERS5_S7_S7_iiilfffS8_ENK3$_2clEl.exit": ; preds = %49, %44, %21
  %67 = add nsw i64 %.014, 1
  %68 = load i64, ptr %6, align 8, !tbaa !12
  %.not.not = icmp slt i64 %.014, %68
  br i1 %.not.not, label %21, label %._crit_edge

._crit_edge:                                      ; preds = %"_ZZN6open3d1t8geometry6kernel10voxel_grid16EstimateRangeCPUERKNS_4core6TensorERS5_S7_S7_iiilfffS8_ENK3$_2clEl.exit", %11
  call void @__kmpc_for_static_fini(ptr nonnull @1, i32 %13)
  call void @llvm.lifetime.end.p0(i64 4, ptr nonnull %8) #25
  call void @llvm.lifetime.end.p0(i64 8, ptr nonnull %7) #25
  call void @llvm.lifetime.end.p0(i64 8, ptr nonnull %6) #25
  call void @llvm.lifetime.end.p0(i64 8, ptr nonnull %5) #25
  br label %69

69:                                               ; preds = %._crit_edge, %4
  ret void
}